target datalayout = "e-m:e-p270:32:32-p271:32:32-p272:64:64-i64:64-i128:128-f80:128-n8:16:32:64-S128"
target triple = "x86_64-pc-linux-gnu"

%struct.cavs_vector = type { i16, i16, i16, i16 }
%struct.AVSContext = type { ptr, %struct.BlockDSPContext, %struct.H264ChromaContext, %struct.VideoDSPContext, %struct.CAVSDSPContext, %struct.GetBitContext, %struct.AVSFrame, [2 x %struct.AVSFrame], [2 x i32], i32, i32, i32, i32, i32, i32, i32, i32, i32, i32, i32, i32, i32, i32, i32, i32, i32, i32, i32, i32, i32, ptr, ptr, ptr, i32, ptr, [24 x %struct.cavs_vector], [2 x ptr], ptr, [9 x i32], ptr, i64, i64, [4 x i32], i32, i32, i32, i32, [64 x i8], ptr, ptr, ptr, [26 x i8], [10 x i8], [10 x i8], [26 x i8], i8, i8, i8, [8 x ptr], [7 x ptr], ptr, i32, [2 x i32], [2 x i32], ptr, i32, ptr }
%struct.BlockDSPContext = type { ptr, ptr, [2 x ptr] }
%struct.H264ChromaContext = type { [4 x ptr], [4 x ptr] }
%struct.VideoDSPContext = type { ptr, ptr }
%struct.CAVSDSPContext = type { [2 x [16 x ptr]], [2 x [16 x ptr]], ptr, ptr, ptr, ptr, ptr, i32 }
%struct.GetBitContext = type { ptr, ptr, i32, i32, i32 }
%struct.AVSFrame = type { ptr, i32 }
%struct.AVFrame = type { [8 x ptr], [8 x i32], ptr, i32, i32, i32, i32, i32, %struct.AVRational, i64, i64, %struct.AVRational, i32, ptr, i32, i32, [8 x ptr], ptr, i32, ptr, i32, i32, i32, i32, i32, i32, i32, i64, ptr, i32, ptr, ptr, i64, i64, i64, i64, ptr, %struct.AVChannelLayout, i64 }
%struct.AVRational = type { i32, i32 }
%struct.AVChannelLayout = type { i32, i32, %union.anon, ptr }
%union.anon = type { i64 }

; Function Attrs: inlinehint nounwind uwtable
define internal void @mc_dir_part(ptr noundef %0, ptr noundef %1, i32 noundef %2, i32 noundef %3, i32 noundef %4, ptr noundef %5, ptr noundef %6, ptr noundef %7, i32 noundef %8, i32 noundef %9, ptr noundef %10, ptr noundef %11, ptr noundef %12) #4 {
  %14 = alloca ptr, align 8
  %15 = alloca ptr, align 8
  %16 = alloca i32, align 4
  %17 = alloca i32, align 4
  %18 = alloca i32, align 4
  %19 = alloca ptr, align 8
  %20 = alloca ptr, align 8
  %21 = alloca ptr, align 8
  %22 = alloca i32, align 4
  %23 = alloca i32, align 4
  %24 = alloca ptr, align 8
  %25 = alloca ptr, align 8
  %26 = alloca ptr, align 8
  %27 = alloca i32, align 4
  %28 = alloca i32, align 4
  %29 = alloca i32, align 4
  %30 = alloca ptr, align 8
  %31 = alloca ptr, align 8
  %32 = alloca ptr, align 8
  %33 = alloca i32, align 4
  %34 = alloca i32, align 4
  %35 = alloca i32, align 4
  %36 = alloca i32, align 4
  %37 = alloca i32, align 4
  %38 = alloca i32, align 4
  %39 = alloca i32, align 4
  %40 = alloca i32, align 4
  store ptr %0, ptr %14, align 8, !tbaa !4
  store ptr %1, ptr %15, align 8, !tbaa !69
  store i32 %2, ptr %16, align 4, !tbaa !9
  store i32 %3, ptr %17, align 4, !tbaa !9
  store i32 %4, ptr %18, align 4, !tbaa !9
  store ptr %5, ptr %19, align 8, !tbaa !57
  store ptr %6, ptr %20, align 8, !tbaa !57
  store ptr %7, ptr %21, align 8, !tbaa !57
  store i32 %8, ptr %22, align 4, !tbaa !9
  store i32 %9, ptr %23, align 4, !tbaa !9
  store ptr %10, ptr %24, align 8, !tbaa !66
  store ptr %11, ptr %25, align 8, !tbaa !65
  store ptr %12, ptr %26, align 8, !tbaa !51
  call void @llvm.lifetime.start.p0(i64 4, ptr %27) #10
  %41 = load ptr, ptr %26, align 8, !tbaa !51
  %42 = getelementptr inbounds nuw %struct.cavs_vector, ptr %41, i32 0, i32 0
  %43 = load i16, ptr %42, align 2, !tbaa !55
  %44 = sext i16 %43 to i32
  %45 = load i32, ptr %22, align 4, !tbaa !9
  %46 = mul nsw i32 %45, 8
  %47 = add nsw i32 %44, %46
  store i32 %47, ptr %27, align 4, !tbaa !9
  call void @llvm.lifetime.start.p0(i64 4, ptr %28) #10
  %48 = load ptr, ptr %26, align 8, !tbaa !51
  %49 = getelementptr inbounds nuw %struct.cavs_vector, ptr %48, i32 0, i32 1
  %50 = load i16, ptr %49, align 2, !tbaa !56
  %51 = sext i16 %50 to i32
  %52 = load i32, ptr %23, align 4, !tbaa !9
  %53 = mul nsw i32 %52, 8
  %54 = add nsw i32 %51, %53
  store i32 %54, ptr %28, align 4, !tbaa !9
  call void @llvm.lifetime.start.p0(i64 4, ptr %29) #10
  %55 = load i32, ptr %27, align 4, !tbaa !9
  %56 = and i32 %55, 3
  %57 = load i32, ptr %28, align 4, !tbaa !9
  %58 = and i32 %57, 3
  %59 = shl i32 %58, 2
  %60 = add nsw i32 %56, %59
  store i32 %60, ptr %29, align 4, !tbaa !9
  call void @llvm.lifetime.start.p0(i64 8, ptr %30) #10
  %61 = load ptr, ptr %15, align 8, !tbaa !69
  %62 = getelementptr inbounds nuw %struct.AVFrame, ptr %61, i32 0, i32 0
  %63 = getelementptr inbounds [8 x ptr], ptr %62, i64 0, i64 0
  %64 = load ptr, ptr %63, align 8, !tbaa !57
  %65 = load i32, ptr %27, align 4, !tbaa !9
  %66 = ashr i32 %65, 2
  %67 = sext i32 %66 to i64
  %68 = getelementptr inbounds i8, ptr %64, i64 %67
  %69 = load i32, ptr %28, align 4, !tbaa !9
  %70 = ashr i32 %69, 2
  %71 = sext i32 %70 to i64
  %72 = load ptr, ptr %14, align 8, !tbaa !4
  %73 = getelementptr inbounds nuw %struct.AVSContext, ptr %72, i32 0, i32 40
  %74 = load i64, ptr %73, align 8, !tbaa !34
  %75 = mul nsw i64 %71, %74
  %76 = getelementptr inbounds i8, ptr %68, i64 %75
  store ptr %76, ptr %30, align 8, !tbaa !57
  call void @llvm.lifetime.start.p0(i64 8, ptr %31) #10
  %77 = load ptr, ptr %15, align 8, !tbaa !69
  %78 = getelementptr inbounds nuw %struct.AVFrame, ptr %77, i32 0, i32 0
  %79 = getelementptr inbounds [8 x ptr], ptr %78, i64 0, i64 1
  %80 = load ptr, ptr %79, align 8, !tbaa !57
  %81 = load i32, ptr %27, align 4, !tbaa !9
  %82 = ashr i32 %81, 3
  %83 = sext i32 %82 to i64
  %84 = getelementptr inbounds i8, ptr %80, i64 %83
  %85 = load i32, ptr %28, align 4, !tbaa !9
  %86 = ashr i32 %85, 3
  %87 = sext i32 %86 to i64
  %88 = load ptr, ptr %14, align 8, !tbaa !4
  %89 = getelementptr inbounds nuw %struct.AVSContext, ptr %88, i32 0, i32 41
  %90 = load i64, ptr %89, align 8, !tbaa !36
  %91 = mul nsw i64 %87, %90
  %92 = getelementptr inbounds i8, ptr %84, i64 %91
  store ptr %92, ptr %31, align 8, !tbaa !57
  call void @llvm.lifetime.start.p0(i64 8, ptr %32) #10
  %93 = load ptr, ptr %15, align 8, !tbaa !69
  %94 = getelementptr inbounds nuw %struct.AVFrame, ptr %93, i32 0, i32 0
  %95 = getelementptr inbounds [8 x ptr], ptr %94, i64 0, i64 2
  %96 = load ptr, ptr %95, align 8, !tbaa !57
  %97 = load i32, ptr %27, align 4, !tbaa !9
  %98 = ashr i32 %97, 3
  %99 = sext i32 %98 to i64
  %100 = getelementptr inbounds i8, ptr %96, i64 %99
  %101 = load i32, ptr %28, align 4, !tbaa !9
  %102 = ashr i32 %101, 3
  %103 = sext i32 %102 to i64
  %104 = load ptr, ptr %14, align 8, !tbaa !4
  %105 = getelementptr inbounds nuw %struct.AVSContext, ptr %104, i32 0, i32 41
  %106 = load i64, ptr %105, align 8, !tbaa !36
  %107 = mul nsw i64 %103, %106
  %108 = getelementptr inbounds i8, ptr %100, i64 %107
  store ptr %108, ptr %32, align 8, !tbaa !57
  call void @llvm.lifetime.start.p0(i64 4, ptr %33) #10
  store i32 0, ptr %33, align 4, !tbaa !9
  call void @llvm.lifetime.start.p0(i64 4, ptr %34) #10
  %109 = load i32, ptr %33, align 4, !tbaa !9
  store i32 %109, ptr %34, align 4, !tbaa !9
  call void @llvm.lifetime.start.p0(i64 4, ptr %35) #10
  %110 = load i32, ptr %27, align 4, !tbaa !9
  %111 = ashr i32 %110, 2
  store i32 %111, ptr %35, align 4, !tbaa !9
  call void @llvm.lifetime.start.p0(i64 4, ptr %36) #10
  %112 = load i32, ptr %28, align 4, !tbaa !9
  %113 = ashr i32 %112, 2
  store i32 %113, ptr %36, align 4, !tbaa !9
  call void @llvm.lifetime.start.p0(i64 4, ptr %37) #10
  %114 = load ptr, ptr %14, align 8, !tbaa !4
  %115 = getelementptr inbounds nuw %struct.AVSContext, ptr %114, i32 0, i32 13
  %116 = load i32, ptr %115, align 8, !tbaa !80
  %117 = mul nsw i32 16, %116
  store i32 %117, ptr %37, align 4, !tbaa !9
  call void @llvm.lifetime.start.p0(i64 4, ptr %38) #10
  %118 = load ptr, ptr %14, align 8, !tbaa !4
  %119 = getelementptr inbounds nuw %struct.AVSContext, ptr %118, i32 0, i32 14
  %120 = load i32, ptr %119, align 4, !tbaa !85
  %121 = mul nsw i32 16, %120
  store i32 %121, ptr %38, align 4, !tbaa !9
  call void @llvm.lifetime.start.p0(i64 4, ptr %39) #10
  store i32 0, ptr %39, align 4, !tbaa !9
  %122 = load ptr, ptr %15, align 8, !tbaa !69
  %123 = getelementptr inbounds nuw %struct.AVFrame, ptr %122, i32 0, i32 0
  %124 = getelementptr inbounds [8 x ptr], ptr %123, i64 0, i64 0
  %125 = load ptr, ptr %124, align 8, !tbaa !57
  %126 = icmp ne ptr %125, null
  br i1 %126, label %128, label %127

127:                                              ; preds = %13
  store i32 1, ptr %40, align 4
  br label %294

128:                                              ; preds = %13
  %129 = load i32, ptr %27, align 4, !tbaa !9
  %130 = and i32 %129, 7
  %131 = icmp ne i32 %130, 0
  br i1 %131, label %132, label %135

132:                                              ; preds = %128
  %133 = load i32, ptr %33, align 4, !tbaa !9
  %134 = sub nsw i32 %133, 3
  store i32 %134, ptr %33, align 4, !tbaa !9
  br label %135

135:                                              ; preds = %132, %128
  %136 = load i32, ptr %28, align 4, !tbaa !9
  %137 = and i32 %136, 7
  %138 = icmp ne i32 %137, 0
  br i1 %138, label %139, label %142

139:                                              ; preds = %135
  %140 = load i32, ptr %34, align 4, !tbaa !9
  %141 = sub nsw i32 %140, 3
  store i32 %141, ptr %34, align 4, !tbaa !9
  br label %142

142:                                              ; preds = %139, %135
  %143 = load i32, ptr %35, align 4, !tbaa !9
  %144 = load i32, ptr %33, align 4, !tbaa !9
  %145 = sub nsw i32 0, %144
  %146 = icmp slt i32 %143, %145
  br i1 %146, label %166, label %147

147:                                              ; preds = %142
  %148 = load i32, ptr %36, align 4, !tbaa !9
  %149 = load i32, ptr %34, align 4, !tbaa !9
  %150 = sub nsw i32 0, %149
  %151 = icmp slt i32 %148, %150
  br i1 %151, label %166, label %152

152:                                              ; preds = %147
  %153 = load i32, ptr %35, align 4, !tbaa !9
  %154 = add nsw i32 %153, 16
  %155 = load i32, ptr %37, align 4, !tbaa !9
  %156 = load i32, ptr %33, align 4, !tbaa !9
  %157 = add nsw i32 %155, %156
  %158 = icmp sgt i32 %154, %157
  br i1 %158, label %166, label %159

159:                                              ; preds = %152
  %160 = load i32, ptr %36, align 4, !tbaa !9
  %161 = add nsw i32 %160, 16
  %162 = load i32, ptr %38, align 4, !tbaa !9
  %163 = load i32, ptr %34, align 4, !tbaa !9
  %164 = add nsw i32 %162, %163
  %165 = icmp sgt i32 %161, %164
  br i1 %165, label %166, label %203

166:                                              ; preds = %159, %152, %147, %142
  %167 = load ptr, ptr %14, align 8, !tbaa !4
  %168 = getelementptr inbounds nuw %struct.AVSContext, ptr %167, i32 0, i32 3
  %169 = getelementptr inbounds nuw %struct.VideoDSPContext, ptr %168, i32 0, i32 0
  %170 = load ptr, ptr %169, align 8, !tbaa !124
  %171 = load ptr, ptr %14, align 8, !tbaa !4
  %172 = getelementptr inbounds nuw %struct.AVSContext, ptr %171, i32 0, i32 64
  %173 = load ptr, ptr %172, align 8, !tbaa !125
  %174 = load ptr, ptr %30, align 8, !tbaa !57
  %175 = getelementptr inbounds i8, ptr %174, i64 -2
  %176 = load ptr, ptr %14, align 8, !tbaa !4
  %177 = getelementptr inbounds nuw %struct.AVSContext, ptr %176, i32 0, i32 40
  %178 = load i64, ptr %177, align 8, !tbaa !34
  %179 = mul nsw i64 2, %178
  %180 = sub i64 0, %179
  %181 = getelementptr inbounds i8, ptr %175, i64 %180
  %182 = load ptr, ptr %14, align 8, !tbaa !4
  %183 = getelementptr inbounds nuw %struct.AVSContext, ptr %182, i32 0, i32 40
  %184 = load i64, ptr %183, align 8, !tbaa !34
  %185 = load ptr, ptr %14, align 8, !tbaa !4
  %186 = getelementptr inbounds nuw %struct.AVSContext, ptr %185, i32 0, i32 40
  %187 = load i64, ptr %186, align 8, !tbaa !34
  %188 = load i32, ptr %35, align 4, !tbaa !9
  %189 = sub nsw i32 %188, 2
  %190 = load i32, ptr %36, align 4, !tbaa !9
  %191 = sub nsw i32 %190, 2
  %192 = load i32, ptr %37, align 4, !tbaa !9
  %193 = load i32, ptr %38, align 4, !tbaa !9
  call void %170(ptr noundef %173, ptr noundef %181, i64 noundef %184, i64 noundef %187, i32 noundef 21, i32 noundef 21, i32 noundef %189, i32 noundef %191, i32 noundef %192, i32 noundef %193)
  %194 = load ptr, ptr %14, align 8, !tbaa !4
  %195 = getelementptr inbounds nuw %struct.AVSContext, ptr %194, i32 0, i32 64
  %196 = load ptr, ptr %195, align 8, !tbaa !125
  %197 = getelementptr inbounds i8, ptr %196, i64 2
  %198 = load ptr, ptr %14, align 8, !tbaa !4
  %199 = getelementptr inbounds nuw %struct.AVSContext, ptr %198, i32 0, i32 40
  %200 = load i64, ptr %199, align 8, !tbaa !34
  %201 = mul nsw i64 2, %200
  %202 = getelementptr inbounds i8, ptr %197, i64 %201
  store ptr %202, ptr %30, align 8, !tbaa !57
  store i32 1, ptr %39, align 4, !tbaa !9
  br label %203

203:                                              ; preds = %166, %159
  %204 = load ptr, ptr %24, align 8, !tbaa !66
  %205 = load i32, ptr %29, align 4, !tbaa !9
  %206 = sext i32 %205 to i64
  %207 = getelementptr inbounds ptr, ptr %204, i64 %206
  %208 = load ptr, ptr %207, align 8, !tbaa !65
  %209 = load ptr, ptr %19, align 8, !tbaa !57
  %210 = load ptr, ptr %30, align 8, !tbaa !57
  %211 = load ptr, ptr %14, align 8, !tbaa !4
  %212 = getelementptr inbounds nuw %struct.AVSContext, ptr %211, i32 0, i32 40
  %213 = load i64, ptr %212, align 8, !tbaa !34
  call void %208(ptr noundef %209, ptr noundef %210, i64 noundef %213)
  %214 = load i32, ptr %39, align 4, !tbaa !9
  %215 = icmp ne i32 %214, 0
  br i1 %215, label %216, label %242

216:                                              ; preds = %203
  %217 = load ptr, ptr %14, align 8, !tbaa !4
  %218 = getelementptr inbounds nuw %struct.AVSContext, ptr %217, i32 0, i32 3
  %219 = getelementptr inbounds nuw %struct.VideoDSPContext, ptr %218, i32 0, i32 0
  %220 = load ptr, ptr %219, align 8, !tbaa !124
  %221 = load ptr, ptr %14, align 8, !tbaa !4
  %222 = getelementptr inbounds nuw %struct.AVSContext, ptr %221, i32 0, i32 64
  %223 = load ptr, ptr %222, align 8, !tbaa !125
  %224 = load ptr, ptr %31, align 8, !tbaa !57
  %225 = load ptr, ptr %14, align 8, !tbaa !4
  %226 = getelementptr inbounds nuw %struct.AVSContext, ptr %225, i32 0, i32 41
  %227 = load i64, ptr %226, align 8, !tbaa !36
  %228 = load ptr, ptr %14, align 8, !tbaa !4
  %229 = getelementptr inbounds nuw %struct.AVSContext, ptr %228, i32 0, i32 41
  %230 = load i64, ptr %229, align 8, !tbaa !36
  %231 = load i32, ptr %27, align 4, !tbaa !9
  %232 = ashr i32 %231, 3
  %233 = load i32, ptr %28, align 4, !tbaa !9
  %234 = ashr i32 %233, 3
  %235 = load i32, ptr %37, align 4, !tbaa !9
  %236 = ashr i32 %235, 1
  %237 = load i32, ptr %38, align 4, !tbaa !9
  %238 = ashr i32 %237, 1
  call void %220(ptr noundef %223, ptr noundef %224, i64 noundef %227, i64 noundef %230, i32 noundef 9, i32 noundef 9, i32 noundef %232, i32 noundef %234, i32 noundef %236, i32 noundef %238)
  %239 = load ptr, ptr %14, align 8, !tbaa !4
  %240 = getelementptr inbounds nuw %struct.AVSContext, ptr %239, i32 0, i32 64
  %241 = load ptr, ptr %240, align 8, !tbaa !125
  store ptr %241, ptr %31, align 8, !tbaa !57
  br label %242

242:                                              ; preds = %216, %203
  %243 = load ptr, ptr %25, align 8, !tbaa !65
  %244 = load ptr, ptr %20, align 8, !tbaa !57
  %245 = load ptr, ptr %31, align 8, !tbaa !57
  %246 = load ptr, ptr %14, align 8, !tbaa !4
  %247 = getelementptr inbounds nuw %struct.AVSContext, ptr %246, i32 0, i32 41
  %248 = load i64, ptr %247, align 8, !tbaa !36
  %249 = load i32, ptr %16, align 4, !tbaa !9
  %250 = load i32, ptr %27, align 4, !tbaa !9
  %251 = and i32 %250, 7
  %252 = load i32, ptr %28, align 4, !tbaa !9
  %253 = and i32 %252, 7
  call void %243(ptr noundef %244, ptr noundef %245, i64 noundef %248, i32 noundef %249, i32 noundef %251, i32 noundef %253)
  %254 = load i32, ptr %39, align 4, !tbaa !9
  %255 = icmp ne i32 %254, 0
  br i1 %255, label %256, label %282

256:                                              ; preds = %242
  %257 = load ptr, ptr %14, align 8, !tbaa !4
  %258 = getelementptr inbounds nuw %struct.AVSContext, ptr %257, i32 0, i32 3
  %259 = getelementptr inbounds nuw %struct.VideoDSPContext, ptr %258, i32 0, i32 0
  %260 = load ptr, ptr %259, align 8, !tbaa !124
  %261 = load ptr, ptr %14, align 8, !tbaa !4
  %262 = getelementptr inbounds nuw %struct.AVSContext, ptr %261, i32 0, i32 64
  %263 = load ptr, ptr %262, align 8, !tbaa !125
  %264 = load ptr, ptr %32, align 8, !tbaa !57
  %265 = load ptr, ptr %14, align 8, !tbaa !4
  %266 = getelementptr inbounds nuw %struct.AVSContext, ptr %265, i32 0, i32 41
  %267 = load i64, ptr %266, align 8, !tbaa !36
  %268 = load ptr, ptr %14, align 8, !tbaa !4
  %269 = getelementptr inbounds nuw %struct.AVSContext, ptr %268, i32 0, i32 41
  %270 = load i64, ptr %269, align 8, !tbaa !36
  %271 = load i32, ptr %27, align 4, !tbaa !9
  %272 = ashr i32 %271, 3
  %273 = load i32, ptr %28, align 4, !tbaa !9
  %274 = ashr i32 %273, 3
  %275 = load i32, ptr %37, align 4, !tbaa !9
  %276 = ashr i32 %275, 1
  %277 = load i32, ptr %38, align 4, !tbaa !9
  %278 = ashr i32 %277, 1
  call void %260(ptr noundef %263, ptr noundef %264, i64 noundef %267, i64 noundef %270, i32 noundef 9, i32 noundef 9, i32 noundef %272, i32 noundef %274, i32 noundef %276, i32 noundef %278)
  %279 = load ptr, ptr %14, align 8, !tbaa !4
  %280 = getelementptr inbounds nuw %struct.AVSContext, ptr %279, i32 0, i32 64
  %281 = load ptr, ptr %280, align 8, !tbaa !125
  store ptr %281, ptr %32, align 8, !tbaa !57
  br label %282

282:                                              ; preds = %256, %242
  %283 = load ptr, ptr %25, align 8, !tbaa !65
  %284 = load ptr, ptr %21, align 8, !tbaa !57
  %285 = load ptr, ptr %32, align 8, !tbaa !57
  %286 = load ptr, ptr %14, align 8, !tbaa !4
  %287 = getelementptr inbounds nuw %struct.AVSContext, ptr %286, i32 0, i32 41
  %288 = load i64, ptr %287, align 8, !tbaa !36
  %289 = load i32, ptr %16, align 4, !tbaa !9
  %290 = load i32, ptr %27, align 4, !tbaa !9
  %291 = and i32 %290, 7
  %292 = load i32, ptr %28, align 4, !tbaa !9
  %293 = and i32 %292, 7
  call void %283(ptr noundef %284, ptr noundef %285, i64 noundef %288, i32 noundef %289, i32 noundef %291, i32 noundef %293)
  store i32 0, ptr %40, align 4
  br label %294

294:                                              ; preds = %282, %127
  call void @llvm.lifetime.end.p0(i64 4, ptr %39) #10
  call void @llvm.lifetime.end.p0(i64 4, ptr %38) #10
  call void @llvm.lifetime.end.p0(i64 4, ptr %37) #10
  call void @llvm.lifetime.end.p0(i64 4, ptr %36) #10
  call void @llvm.lifetime.end.p0(i64 4, ptr %35) #10
  call void @llvm.lifetime.end.p0(i64 4, ptr %34) #10
  call void @llvm.lifetime.end.p0(i64 4, ptr %33) #10
  call void @llvm.lifetime.end.p0(i64 8, ptr %32) #10
  call void @llvm.lifetime.end.p0(i64 8, ptr %31) #10
  call void @llvm.lifetime.end.p0(i64 8, ptr %30) #10
  call void @llvm.lifetime.end.p0(i64 4, ptr %29) #10
  call void @llvm.lifetime.end.p0(i64 4, ptr %28) #10
  call void @llvm.lifetime.end.p0(i64 4, ptr %27) #10
  %295 = load i32, ptr %40, align 4
  switch i32 %295, label %297 [
    i32 0, label %296
    i32 1, label %296
  ]

296:                                              ; preds = %294, %294
  ret void

297:                                              ; preds = %294
  unreachable
}