; Function Attrs: inlinehint nounwind uwtable
define internal fastcc void @mc_dir_part(ptr noundef readonly captures(none) %0, ptr noundef readonly captures(none) %1, i32 noundef range(i32 4, 9) %2, ptr noundef %3, ptr noundef %4, ptr noundef %5, i32 noundef %6, i32 noundef %7, ptr noundef readonly captures(none) %8, ptr noundef readonly captures(none) %9, i16 %.0.val, i16 %.2.val) unnamed_addr #12 {
  %11 = sext i16 %.0.val to i32
  %12 = shl nsw i32 %6, 3
  %13 = add nsw i32 %12, %11
  %14 = sext i16 %.2.val to i32
  %15 = shl nsw i32 %7, 3
  %16 = add nsw i32 %15, %14
  %17 = and i32 %11, 3
  %18 = shl nsw i32 %14, 2
  %19 = and i32 %18, 12
  %20 = or disjoint i32 %19, %17
  %21 = load ptr, ptr %1, align 8, !tbaa !53
  %22 = ashr i32 %13, 2
  %23 = sext i32 %22 to i64
  %24 = getelementptr inbounds i8, ptr %21, i64 %23
  %25 = ashr i32 %16, 2
  %26 = sext i32 %25 to i64
  %27 = getelementptr inbounds nuw i8, ptr %0, i64 1160
  %28 = load i64, ptr %27, align 8, !tbaa !31
  %29 = mul nsw i64 %28, %26
  %30 = getelementptr inbounds i8, ptr %24, i64 %29
  %31 = getelementptr inbounds nuw i8, ptr %1, i64 8
  %32 = load ptr, ptr %31, align 8, !tbaa !53
  %33 = ashr i32 %13, 3
  %34 = sext i32 %33 to i64
  %35 = getelementptr inbounds i8, ptr %32, i64 %34
  %36 = ashr i32 %16, 3
  %37 = sext i32 %36 to i64
  %38 = getelementptr inbounds nuw i8, ptr %0, i64 1168
  %39 = load i64, ptr %38, align 8, !tbaa !33
  %40 = mul nsw i64 %39, %37
  %41 = getelementptr inbounds i8, ptr %35, i64 %40
  %42 = getelementptr inbounds nuw i8, ptr %1, i64 16
  %43 = load ptr, ptr %42, align 8, !tbaa !53
  %44 = getelementptr inbounds i8, ptr %43, i64 %34
  %45 = getelementptr inbounds i8, ptr %44, i64 %40
  %46 = getelementptr inbounds nuw i8, ptr %0, i64 784
  %47 = load i32, ptr %46, align 8, !tbaa !68
  %48 = shl nsw i32 %47, 4
  %49 = getelementptr inbounds nuw i8, ptr %0, i64 788
  %50 = load i32, ptr %49, align 4, !tbaa !73
  %51 = shl nsw i32 %50, 4
  %.not = icmp eq ptr %21, null
  br i1 %.not, label %100, label %52

52:                                               ; preds = %10
  %53 = and i32 %11, 7
  %54 = and i16 %.0.val, 7
  %.not97 = icmp eq i16 %54, 0
  %spec.select.neg = select i1 %.not97, i32 0, i32 3
  %55 = and i32 %14, 7
  %56 = and i16 %.2.val, 7
  %.not98 = icmp eq i16 %56, 0
  %.094.neg = select i1 %.not98, i32 0, i32 3
  %.094 = select i1 %.not98, i32 0, i32 -3
  %57 = icmp slt i32 %22, %spec.select.neg
  %58 = icmp slt i32 %25, %.094.neg
  %or.cond = select i1 %57, i1 true, i1 %58
  br i1 %or.cond, label %.critedge102, label %59

59:                                               ; preds = %52
  %spec.select = select i1 %.not97, i32 0, i32 -3
  %60 = add nuw nsw i32 %22, 16
  %61 = add nsw i32 %48, %spec.select
  %62 = icmp sgt i32 %60, %61
  br i1 %62, label %.critedge102, label %63

63:                                               ; preds = %59
  %64 = add nuw nsw i32 %25, 16
  %65 = add nsw i32 %51, %.094
  %66 = icmp sgt i32 %64, %65
  br i1 %66, label %.critedge102, label %.critedge

.critedge102:                                     ; preds = %63, %59, %52
  %67 = getelementptr inbounds nuw i8, ptr %0, i64 104
  %68 = load ptr, ptr %67, align 8, !tbaa !112
  %69 = getelementptr inbounds nuw i8, ptr %0, i64 1528
  %70 = load ptr, ptr %69, align 8, !tbaa !113
  %71 = getelementptr inbounds i8, ptr %30, i64 -2
  %.neg = mul i64 %28, -2
  %72 = getelementptr inbounds i8, ptr %71, i64 %.neg
  %73 = add nsw i32 %22, -2
  %74 = add nsw i32 %25, -2
  tail call void %68(ptr noundef %70, ptr noundef nonnull %72, i64 noundef %28, i64 noundef %28, i32 noundef 21, i32 noundef 21, i32 noundef %73, i32 noundef %74, i32 noundef %48, i32 noundef %51) #14
  %75 = load ptr, ptr %69, align 8, !tbaa !113
  %76 = getelementptr inbounds nuw i8, ptr %75, i64 2
  %77 = load i64, ptr %27, align 8, !tbaa !31
  %78 = shl nsw i64 %77, 1
  %79 = getelementptr inbounds i8, ptr %76, i64 %78
  %80 = zext nneg i32 %20 to i64
  %81 = getelementptr inbounds nuw ptr, ptr %8, i64 %80
  %82 = load ptr, ptr %81, align 8, !tbaa !58
  tail call void %82(ptr noundef %3, ptr noundef nonnull %79, i64 noundef %77) #14
  %83 = load ptr, ptr %67, align 8, !tbaa !112
  %84 = load ptr, ptr %69, align 8, !tbaa !113
  %85 = load i64, ptr %38, align 8, !tbaa !33
  %86 = shl nsw i32 %47, 3
  %87 = shl nsw i32 %50, 3
  tail call void %83(ptr noundef %84, ptr noundef %41, i64 noundef %85, i64 noundef %85, i32 noundef 9, i32 noundef 9, i32 noundef %33, i32 noundef %36, i32 noundef %86, i32 noundef %87) #14
  %88 = load ptr, ptr %69, align 8, !tbaa !113
  %89 = load i64, ptr %38, align 8, !tbaa !33
  tail call void %9(ptr noundef %4, ptr noundef %88, i64 noundef %89, i32 noundef %2, i32 noundef %53, i32 noundef %55) #14
  %90 = load ptr, ptr %67, align 8, !tbaa !112
  %91 = load ptr, ptr %69, align 8, !tbaa !113
  %92 = load i64, ptr %38, align 8, !tbaa !33
  tail call void %90(ptr noundef %91, ptr noundef %45, i64 noundef %92, i64 noundef %92, i32 noundef 9, i32 noundef 9, i32 noundef %33, i32 noundef %36, i32 noundef %86, i32 noundef %87) #14
  %93 = load ptr, ptr %69, align 8, !tbaa !113
  br label %98

.critedge:                                        ; preds = %63
  %94 = zext nneg i32 %20 to i64
  %95 = getelementptr inbounds nuw ptr, ptr %8, i64 %94
  %96 = load ptr, ptr %95, align 8, !tbaa !58
  tail call void %96(ptr noundef %3, ptr noundef nonnull %30, i64 noundef %28) #14
  %97 = load i64, ptr %38, align 8, !tbaa !33
  tail call void %9(ptr noundef %4, ptr noundef %41, i64 noundef %97, i32 noundef %2, i32 noundef %53, i32 noundef %55) #14
  br label %98

98:                                               ; preds = %.critedge, %.critedge102
  %.092 = phi ptr [ %93, %.critedge102 ], [ %45, %.critedge ]
  %99 = load i64, ptr %38, align 8, !tbaa !33
  tail call void %9(ptr noundef %5, ptr noundef %.092, i64 noundef %99, i32 noundef %2, i32 noundef %53, i32 noundef %55) #14
  br label %100

100:                                              ; preds = %10, %98
  ret void
}